ccopy_reg
_reconstructor
p0
(cfunc
Project
p1
c__builtin__
object
p2
Ntp3
Rp4
(dp5
S'files'
p6
(lp7
S'/home/chuck/git/chuck1/python/projects/c_projects/gcc_header_dep/src/bar.cpp'
p8
aS'/usr/include/stdc-predef.h'
p9
aS'./include/bar.hpp'
p10
aS'/usr/include/stdio.h'
p11
aS'/usr/include/features.h'
p12
aS'/usr/include/x86_64-linux-gnu/sys/cdefs.h'
p13
aS'/usr/include/x86_64-linux-gnu/bits/wordsize.h'
p14
aS'/usr/include/x86_64-linux-gnu/gnu/stubs.h'
p15
aS'/usr/include/x86_64-linux-gnu/gnu/stubs-64.h'
p16
aS'/usr/lib/gcc/x86_64-linux-gnu/4.8/include/stddef.h'
p17
aS'/usr/include/x86_64-linux-gnu/bits/types.h'
p18
aS'/usr/include/x86_64-linux-gnu/bits/typesizes.h'
p19
aS'/usr/include/libio.h'
p20
aS'/usr/include/_G_config.h'
p21
aS'/usr/include/wchar.h'
p22
aS'/usr/lib/gcc/x86_64-linux-gnu/4.8/include/stdarg.h'
p23
aS'/usr/include/x86_64-linux-gnu/bits/stdio_lim.h'
p24
aS'/usr/include/x86_64-linux-gnu/bits/sys_errlist.h'
p25
asS'name'
p26
S'/home/chuck/git/chuck1/python/projects/c_projects/gcc_header_dep/src/bar.cpp.pre2'
p27
sS'dep'
p28
(lp29
(lp30
I0
aI1
aa(lp31
I0
aI2
aa(lp32
I2
aI3
aasS'filetype'
p33
(lp34
(lp35
a(lp36
I1
aI3
aI4
aa(lp37
I1
aa(lp38
I1
aI3
aI4
aa(lp39
I1
aI3
aI4
aa(lp40
I1
aI3
aI4
aa(lp41
I1
aI3
aI4
aa(lp42
I1
aI3
aI4
aa(lp43
I1
aI3
aI4
aa(lp44
I1
aI3
aI4
aa(lp45
I1
aI3
aI4
aa(lp46
I1
aI3
aI4
aa(lp47
I1
aI3
aI4
aa(lp48
I1
aI3
aI4
aa(lp49
I1
aI3
aI4
aa(lp50
I1
aI3
aI4
aa(lp51
I1
aI3
aI4
aa(lp52
I1
aI3
aI4
aasS'i'
p53
I0
sS'root'
p54
S'./pre2_to_pre3.py'
p55
sb.