ccopy_reg
_reconstructor
p0
(cfunc
Project
p1
c__builtin__
object
p2
Ntp3
Rp4
(dp5
S'files'
p6
(lp7
S'/home/chuck/git/chuck1/python/projects/c_projects/gcc_header_dep/src/foo.cpp'
p8
aS'/usr/include/stdc-predef.h'
p9
aS'./include/foo.hpp'
p10
aS'./include/bar.hpp'
p11
aS'/usr/include/stdio.h'
p12
aS'/usr/include/features.h'
p13
aS'/usr/include/x86_64-linux-gnu/sys/cdefs.h'
p14
aS'/usr/include/x86_64-linux-gnu/bits/wordsize.h'
p15
aS'/usr/include/x86_64-linux-gnu/gnu/stubs.h'
p16
aS'/usr/include/x86_64-linux-gnu/gnu/stubs-64.h'
p17
aS'/usr/lib/gcc/x86_64-linux-gnu/4.8/include/stddef.h'
p18
aS'/usr/include/x86_64-linux-gnu/bits/types.h'
p19
aS'/usr/include/x86_64-linux-gnu/bits/typesizes.h'
p20
aS'/usr/include/libio.h'
p21
aS'/usr/include/_G_config.h'
p22
aS'/usr/include/wchar.h'
p23
aS'/usr/lib/gcc/x86_64-linux-gnu/4.8/include/stdarg.h'
p24
aS'/usr/include/x86_64-linux-gnu/bits/stdio_lim.h'
p25
aS'/usr/include/x86_64-linux-gnu/bits/sys_errlist.h'
p26
asS'name'
p27
S'/home/chuck/git/chuck1/python/projects/c_projects/gcc_header_dep/src/foo.cpp.pre2'
p28
sS'dep'
p29
(lp30
(lp31
I0
aI1
aa(lp32
I0
aI2
aa(lp33
I2
aI3
aa(lp34
I3
aI4
aasS'filetype'
p35
(lp36
(lp37
a(lp38
I1
aI3
aI4
aa(lp39
I1
aa(lp40
I1
aa(lp41
I1
aI3
aI4
aa(lp42
I1
aI3
aI4
aa(lp43
I1
aI3
aI4
aa(lp44
I1
aI3
aI4
aa(lp45
I1
aI3
aI4
aa(lp46
I1
aI3
aI4
aa(lp47
I1
aI3
aI4
aa(lp48
I1
aI3
aI4
aa(lp49
I1
aI3
aI4
aa(lp50
I1
aI3
aI4
aa(lp51
I1
aI3
aI4
aa(lp52
I1
aI3
aI4
aa(lp53
I1
aI3
aI4
aa(lp54
I1
aI3
aI4
aa(lp55
I1
aI3
aI4
aasS'i'
p56
I0
sS'root'
p57
S'./pre2_to_pre3.py'
p58
sb.