ccopy_reg
_reconstructor
p0
(cfunc
Pre2
p1
c__builtin__
object
p2
Ntp3
Rp4
(dp5
S'items'
p6
(lp7
g0
(cfunc
Item
p8
g2
Ntp9
Rp10
(dp11
S'flags'
p12
(lp13
sS'name'
p14
S'/home/chuck/git/chuck1/python/projects/c_projects/gcc_header_dep/src/foo.cpp'
p15
sbag0
(g8
g2
Ntp16
Rp17
(dp18
g12
(lp19
I1
aI3
aI4
asg14
S'/usr/include/stdc-predef.h'
p20
sbag0
(g8
g2
Ntp21
Rp22
(dp23
g12
(lp24
sg14
S'/home/chuck/git/chuck1/python/projects/c_projects/gcc_header_dep/src/foo.cpp'
p25
sbag0
(g8
g2
Ntp26
Rp27
(dp28
g12
(lp29
I1
asg14
S'./include/foo.hpp'
p30
sbag0
(g8
g2
Ntp31
Rp32
(dp33
g12
(lp34
I1
asg14
S'./include/bar.hpp'
p35
sbag0
(g8
g2
Ntp36
Rp37
(dp38
g12
(lp39
I1
aI3
aI4
asg14
S'/usr/include/stdio.h'
p40
sbag0
(g8
g2
Ntp41
Rp42
(dp43
g12
(lp44
I3
aI4
asg14
S'/usr/include/stdio.h'
p45
sbag0
(g8
g2
Ntp46
Rp47
(dp48
g12
(lp49
I1
aI3
aI4
asg14
S'/usr/include/features.h'
p50
sbag0
(g8
g2
Ntp51
Rp52
(dp53
g12
(lp54
I3
aI4
asg14
S'/usr/include/features.h'
p55
sbag0
(g8
g2
Ntp56
Rp57
(dp58
g12
(lp59
I1
aI3
aI4
asg14
S'/usr/include/x86_64-linux-gnu/sys/cdefs.h'
p60
sbag0
(g8
g2
Ntp61
Rp62
(dp63
g12
(lp64
I3
aI4
asg14
S'/usr/include/x86_64-linux-gnu/sys/cdefs.h'
p65
sbag0
(g8
g2
Ntp66
Rp67
(dp68
g12
(lp69
I1
aI3
aI4
asg14
S'/usr/include/x86_64-linux-gnu/bits/wordsize.h'
p70
sbag0
(g8
g2
Ntp71
Rp72
(dp73
g12
(lp74
I2
aI3
aI4
asg14
S'/usr/include/x86_64-linux-gnu/sys/cdefs.h'
p75
sbag0
(g8
g2
Ntp76
Rp77
(dp78
g12
(lp79
I2
aI3
aI4
asg14
S'/usr/include/features.h'
p80
sbag0
(g8
g2
Ntp81
Rp82
(dp83
g12
(lp84
I3
aI4
asg14
S'/usr/include/features.h'
p85
sbag0
(g8
g2
Ntp86
Rp87
(dp88
g12
(lp89
I1
aI3
aI4
asg14
S'/usr/include/x86_64-linux-gnu/gnu/stubs.h'
p90
sbag0
(g8
g2
Ntp91
Rp92
(dp93
g12
(lp94
I3
aI4
asg14
S'/usr/include/x86_64-linux-gnu/gnu/stubs.h'
p95
sbag0
(g8
g2
Ntp96
Rp97
(dp98
g12
(lp99
I1
aI3
aI4
asg14
S'/usr/include/x86_64-linux-gnu/gnu/stubs-64.h'
p100
sbag0
(g8
g2
Ntp101
Rp102
(dp103
g12
(lp104
I2
aI3
aI4
asg14
S'/usr/include/x86_64-linux-gnu/gnu/stubs.h'
p105
sbag0
(g8
g2
Ntp106
Rp107
(dp108
g12
(lp109
I2
aI3
aI4
asg14
S'/usr/include/features.h'
p110
sbag0
(g8
g2
Ntp111
Rp112
(dp113
g12
(lp114
I2
aI3
aI4
asg14
S'/usr/include/stdio.h'
p115
sbag0
(g8
g2
Ntp116
Rp117
(dp118
g12
(lp119
I1
aI3
aI4
asg14
S'/usr/lib/gcc/x86_64-linux-gnu/4.8/include/stddef.h'
p120
sbag0
(g8
g2
Ntp121
Rp122
(dp123
g12
(lp124
I3
aI4
asg14
S'/usr/lib/gcc/x86_64-linux-gnu/4.8/include/stddef.h'
p125
sbag0
(g8
g2
Ntp126
Rp127
(dp128
g12
(lp129
I2
aI3
aI4
asg14
S'/usr/include/stdio.h'
p130
sbag0
(g8
g2
Ntp131
Rp132
(dp133
g12
(lp134
I1
aI3
aI4
asg14
S'/usr/include/x86_64-linux-gnu/bits/types.h'
p135
sbag0
(g8
g2
Ntp136
Rp137
(dp138
g12
(lp139
I3
aI4
asg14
S'/usr/include/x86_64-linux-gnu/bits/types.h'
p140
sbag0
(g8
g2
Ntp141
Rp142
(dp143
g12
(lp144
I1
aI3
aI4
asg14
S'/usr/include/x86_64-linux-gnu/bits/wordsize.h'
p145
sbag0
(g8
g2
Ntp146
Rp147
(dp148
g12
(lp149
I2
aI3
aI4
asg14
S'/usr/include/x86_64-linux-gnu/bits/types.h'
p150
sbag0
(g8
g2
Ntp151
Rp152
(dp153
g12
(lp154
I3
aI4
asg14
S'/usr/include/x86_64-linux-gnu/bits/types.h'
p155
sbag0
(g8
g2
Ntp156
Rp157
(dp158
g12
(lp159
I1
aI3
aI4
asg14
S'/usr/include/x86_64-linux-gnu/bits/typesizes.h'
p160
sbag0
(g8
g2
Ntp161
Rp162
(dp163
g12
(lp164
I2
aI3
aI4
asg14
S'/usr/include/x86_64-linux-gnu/bits/types.h'
p165
sbag0
(g8
g2
Ntp166
Rp167
(dp168
g12
(lp169
I2
aI3
aI4
asg14
S'/usr/include/stdio.h'
p170
sbag0
(g8
g2
Ntp171
Rp172
(dp173
g12
(lp174
I3
aI4
asg14
S'/usr/include/stdio.h'
p175
sbag0
(g8
g2
Ntp176
Rp177
(dp178
g12
(lp179
I3
aI4
asg14
S'/usr/include/stdio.h'
p180
sbag0
(g8
g2
Ntp181
Rp182
(dp183
g12
(lp184
I3
aI4
asg14
S'/usr/include/stdio.h'
p185
sbag0
(g8
g2
Ntp186
Rp187
(dp188
g12
(lp189
I1
aI3
aI4
asg14
S'/usr/include/libio.h'
p190
sbag0
(g8
g2
Ntp191
Rp192
(dp193
g12
(lp194
I3
aI4
asg14
S'/usr/include/libio.h'
p195
sbag0
(g8
g2
Ntp196
Rp197
(dp198
g12
(lp199
I1
aI3
aI4
asg14
S'/usr/include/_G_config.h'
p200
sbag0
(g8
g2
Ntp201
Rp202
(dp203
g12
(lp204
I3
aI4
asg14
S'/usr/include/_G_config.h'
p205
sbag0
(g8
g2
Ntp206
Rp207
(dp208
g12
(lp209
I1
aI3
aI4
asg14
S'/usr/lib/gcc/x86_64-linux-gnu/4.8/include/stddef.h'
p210
sbag0
(g8
g2
Ntp211
Rp212
(dp213
g12
(lp214
I2
aI3
aI4
asg14
S'/usr/include/_G_config.h'
p215
sbag0
(g8
g2
Ntp216
Rp217
(dp218
g12
(lp219
I1
aI3
aI4
asg14
S'/usr/include/wchar.h'
p220
sbag0
(g8
g2
Ntp221
Rp222
(dp223
g12
(lp224
I3
aI4
asg14
S'/usr/include/wchar.h'
p225
sbag0
(g8
g2
Ntp226
Rp227
(dp228
g12
(lp229
I2
aI3
aI4
asg14
S'/usr/include/_G_config.h'
p230
sbag0
(g8
g2
Ntp231
Rp232
(dp233
g12
(lp234
I2
aI3
aI4
asg14
S'/usr/include/libio.h'
p235
sbag0
(g8
g2
Ntp236
Rp237
(dp238
g12
(lp239
I3
aI4
asg14
S'/usr/include/libio.h'
p240
sbag0
(g8
g2
Ntp241
Rp242
(dp243
g12
(lp244
I1
aI3
aI4
asg14
S'/usr/lib/gcc/x86_64-linux-gnu/4.8/include/stdarg.h'
p245
sbag0
(g8
g2
Ntp246
Rp247
(dp248
g12
(lp249
I3
aI4
asg14
S'/usr/lib/gcc/x86_64-linux-gnu/4.8/include/stdarg.h'
p250
sbag0
(g8
g2
Ntp251
Rp252
(dp253
g12
(lp254
I2
aI3
aI4
asg14
S'/usr/include/libio.h'
p255
sbag0
(g8
g2
Ntp256
Rp257
(dp258
g12
(lp259
I3
aI4
asg14
S'/usr/include/libio.h'
p260
sbag0
(g8
g2
Ntp261
Rp262
(dp263
g12
(lp264
I3
aI4
asg14
S'/usr/include/libio.h'
p265
sbag0
(g8
g2
Ntp266
Rp267
(dp268
g12
(lp269
I3
aI4
asg14
S'/usr/include/libio.h'
p270
sbag0
(g8
g2
Ntp271
Rp272
(dp273
g12
(lp274
I3
aI4
asg14
S'/usr/include/libio.h'
p275
sbag0
(g8
g2
Ntp276
Rp277
(dp278
g12
(lp279
I3
aI4
asg14
S'/usr/include/libio.h'
p280
sbag0
(g8
g2
Ntp281
Rp282
(dp283
g12
(lp284
I3
aI4
asg14
S'/usr/include/libio.h'
p285
sbag0
(g8
g2
Ntp286
Rp287
(dp288
g12
(lp289
I3
aI4
asg14
S'/usr/include/libio.h'
p290
sbag0
(g8
g2
Ntp291
Rp292
(dp293
g12
(lp294
I3
aI4
asg14
S'/usr/include/libio.h'
p295
sbag0
(g8
g2
Ntp296
Rp297
(dp298
g12
(lp299
I3
aI4
asg14
S'/usr/include/libio.h'
p300
sbag0
(g8
g2
Ntp301
Rp302
(dp303
g12
(lp304
I3
aI4
asg14
S'/usr/include/libio.h'
p305
sbag0
(g8
g2
Ntp306
Rp307
(dp308
g12
(lp309
I2
aI3
aI4
asg14
S'/usr/include/stdio.h'
p310
sbag0
(g8
g2
Ntp311
Rp312
(dp313
g12
(lp314
I3
aI4
asg14
S'/usr/include/stdio.h'
p315
sbag0
(g8
g2
Ntp316
Rp317
(dp318
g12
(lp319
I3
aI4
asg14
S'/usr/include/stdio.h'
p320
sbag0
(g8
g2
Ntp321
Rp322
(dp323
g12
(lp324
I1
aI3
aI4
asg14
S'/usr/include/x86_64-linux-gnu/bits/stdio_lim.h'
p325
sbag0
(g8
g2
Ntp326
Rp327
(dp328
g12
(lp329
I2
aI3
aI4
asg14
S'/usr/include/stdio.h'
p330
sbag0
(g8
g2
Ntp331
Rp332
(dp333
g12
(lp334
I3
aI4
asg14
S'/usr/include/stdio.h'
p335
sbag0
(g8
g2
Ntp336
Rp337
(dp338
g12
(lp339
I3
aI4
asg14
S'/usr/include/stdio.h'
p340
sbag0
(g8
g2
Ntp341
Rp342
(dp343
g12
(lp344
I3
aI4
asg14
S'/usr/include/stdio.h'
p345
sbag0
(g8
g2
Ntp346
Rp347
(dp348
g12
(lp349
I3
aI4
asg14
S'/usr/include/stdio.h'
p350
sbag0
(g8
g2
Ntp351
Rp352
(dp353
g12
(lp354
I3
aI4
asg14
S'/usr/include/stdio.h'
p355
sbag0
(g8
g2
Ntp356
Rp357
(dp358
g12
(lp359
I3
aI4
asg14
S'/usr/include/stdio.h'
p360
sbag0
(g8
g2
Ntp361
Rp362
(dp363
g12
(lp364
I3
aI4
asg14
S'/usr/include/stdio.h'
p365
sbag0
(g8
g2
Ntp366
Rp367
(dp368
g12
(lp369
I3
aI4
asg14
S'/usr/include/stdio.h'
p370
sbag0
(g8
g2
Ntp371
Rp372
(dp373
g12
(lp374
I3
aI4
asg14
S'/usr/include/stdio.h'
p375
sbag0
(g8
g2
Ntp376
Rp377
(dp378
g12
(lp379
I3
aI4
asg14
S'/usr/include/stdio.h'
p380
sbag0
(g8
g2
Ntp381
Rp382
(dp383
g12
(lp384
I3
aI4
asg14
S'/usr/include/stdio.h'
p385
sbag0
(g8
g2
Ntp386
Rp387
(dp388
g12
(lp389
I3
aI4
asg14
S'/usr/include/stdio.h'
p390
sbag0
(g8
g2
Ntp391
Rp392
(dp393
g12
(lp394
I3
aI4
asg14
S'/usr/include/stdio.h'
p395
sbag0
(g8
g2
Ntp396
Rp397
(dp398
g12
(lp399
I3
aI4
asg14
S'/usr/include/stdio.h'
p400
sbag0
(g8
g2
Ntp401
Rp402
(dp403
g12
(lp404
I3
aI4
asg14
S'/usr/include/stdio.h'
p405
sbag0
(g8
g2
Ntp406
Rp407
(dp408
g12
(lp409
I3
aI4
asg14
S'/usr/include/stdio.h'
p410
sbag0
(g8
g2
Ntp411
Rp412
(dp413
g12
(lp414
I3
aI4
asg14
S'/usr/include/stdio.h'
p415
sbag0
(g8
g2
Ntp416
Rp417
(dp418
g12
(lp419
I3
aI4
asg14
S'/usr/include/stdio.h'
p420
sbag0
(g8
g2
Ntp421
Rp422
(dp423
g12
(lp424
I1
aI3
aI4
asg14
S'/usr/include/x86_64-linux-gnu/bits/sys_errlist.h'
p425
sbag0
(g8
g2
Ntp426
Rp427
(dp428
g12
(lp429
I3
aI4
asg14
S'/usr/include/x86_64-linux-gnu/bits/sys_errlist.h'
p430
sbag0
(g8
g2
Ntp431
Rp432
(dp433
g12
(lp434
I2
aI3
aI4
asg14
S'/usr/include/stdio.h'
p435
sbag0
(g8
g2
Ntp436
Rp437
(dp438
g12
(lp439
I3
aI4
asg14
S'/usr/include/stdio.h'
p440
sbag0
(g8
g2
Ntp441
Rp442
(dp443
g12
(lp444
I3
aI4
asg14
S'/usr/include/stdio.h'
p445
sbag0
(g8
g2
Ntp446
Rp447
(dp448
g12
(lp449
I2
asg14
S'./include/bar.hpp'
p450
sbag0
(g8
g2
Ntp451
Rp452
(dp453
g12
(lp454
I2
asg14
S'./include/foo.hpp'
p455
sbag0
(g8
g2
Ntp456
Rp457
(dp458
g12
(lp459
I2
asg14
S'/home/chuck/git/chuck1/python/projects/c_projects/gcc_header_dep/src/foo.cpp'
p460
sbasb.